target datalayout = "e-m:e-p270:32:32-p271:32:32-p272:64:64-i64:64-i128:128-f80:128-n8:16:32:64-S128"
target triple = "x86_64-pc-linux-gnu"

%struct.sigaction = type { %union.anon, %struct.__sigset_t, i32, ptr }
%union.anon = type { ptr }
%struct.__sigset_t = type { [16 x i64] }

@old_sigaction = internal global [65 x %struct.sigaction] zeroinitializer, align 16

; Function Attrs: nounwind uwtable
define internal zeroext i1 @setup_vt_signal(i32 noundef %0, ptr noundef %1) #0 {
  %3 = alloca i1, align 1
  %4 = alloca i32, align 4
  %5 = alloca ptr, align 8
  %6 = alloca ptr, align 8
  %7 = alloca %struct.sigaction, align 8
  %8 = alloca i32, align 4
  store i32 %0, ptr %4, align 4
  store ptr %1, ptr %5, align 8
  call void @llvm.lifetime.start.p0(i64 8, ptr %6) #7
  call void @llvm.lifetime.start.p0(i64 152, ptr %7) #7
  %9 = load i32, ptr %4, align 4
  %10 = sext i32 %9 to i64
  %11 = getelementptr inbounds [65 x %struct.sigaction], ptr @old_sigaction, i64 0, i64 %10
  store ptr %11, ptr %6, align 8
  call void @llvm.memset.p0.i64(ptr align 8 %7, i8 0, i64 152, i1 false)
  %12 = load ptr, ptr %5, align 8
  %13 = getelementptr inbounds nuw %struct.sigaction, ptr %7, i32 0, i32 0
  store ptr %12, ptr %13, align 8
  %14 = getelementptr inbounds nuw %struct.sigaction, ptr %7, i32 0, i32 2
  store i32 268435456, ptr %14, align 8
  %15 = load i32, ptr %4, align 4
  %16 = load ptr, ptr %6, align 8
  %17 = call i32 @sigaction(i32 noundef %15, ptr noundef %7, ptr noundef %16) #7
  %18 = icmp slt i32 %17, 0
  br i1 %18, label %19, label %20

19:                                               ; preds = %2
  store i1 false, ptr %3, align 1
  store i32 1, ptr %8, align 4
  br label %30

20:                                               ; preds = %2
  %21 = load ptr, ptr %6, align 8
  %22 = getelementptr inbounds nuw %struct.sigaction, ptr %21, i32 0, i32 0
  %23 = load ptr, ptr %22, align 8
  %24 = icmp ne ptr %23, null
  br i1 %24, label %25, label %29

25:                                               ; preds = %20
  %26 = load i32, ptr %4, align 4
  %27 = load ptr, ptr %6, align 8
  %28 = call i32 @sigaction(i32 noundef %26, ptr noundef %27, ptr noundef null) #7
  store i1 false, ptr %3, align 1
  store i32 1, ptr %8, align 4
  br label %30

29:                                               ; preds = %20
  store i1 true, ptr %3, align 1
  store i32 1, ptr %8, align 4
  br label %30

30:                                               ; preds = %29, %25, %19
  call void @llvm.lifetime.end.p0(i64 152, ptr %7) #7
  call void @llvm.lifetime.end.p0(i64 8, ptr %6) #7
  %31 = load i1, ptr %3, align 1
  ret i1 %31
}

; Function Attrs: nounwind uwtable
define internal i32 @find_free_signal(ptr noundef %0) #0 {
  %2 = alloca i32, align 4
  %3 = alloca ptr, align 8
  %4 = alloca i32, align 4
  %5 = alloca i32, align 4
  store ptr %0, ptr %3, align 8
  call void @llvm.lifetime.start.p0(i64 4, ptr %4) #7
  %6 = call i32 @__libc_current_sigrtmin() #7
  %7 = add nsw i32 %6, 2
  store i32 %7, ptr %4, align 4
  br label %8

8:                                                ; preds = %19, %1
  %9 = load i32, ptr %4, align 4
  %10 = call i32 @__libc_current_sigrtmax() #7
  %11 = icmp sle i32 %9, %10
  br i1 %11, label %12, label %22

12:                                               ; preds = %8
  %13 = load i32, ptr %4, align 4
  %14 = load ptr, ptr %3, align 8
  %15 = call zeroext i1 @setup_vt_signal(i32 noundef %13, ptr noundef %14)
  br i1 %15, label %16, label %18

16:                                               ; preds = %12
  %17 = load i32, ptr %4, align 4
  store i32 %17, ptr %2, align 4
  store i32 1, ptr %5, align 4
  br label %31

18:                                               ; preds = %12
  br label %19

19:                                               ; preds = %18
  %20 = load i32, ptr %4, align 4
  %21 = add nsw i32 %20, 1
  store i32 %21, ptr %4, align 4
  br label %8, !llvm.loop !9

22:                                               ; preds = %8
  %23 = load ptr, ptr %3, align 8
  %24 = call zeroext i1 @setup_vt_signal(i32 noundef 10, ptr noundef %23)
  br i1 %24, label %25, label %26

25:                                               ; preds = %22
  store i32 10, ptr %2, align 4
  store i32 1, ptr %5, align 4
  br label %31

26:                                               ; preds = %22
  %27 = load ptr, ptr %3, align 8
  %28 = call zeroext i1 @setup_vt_signal(i32 noundef 12, ptr noundef %27)
  br i1 %28, label %29, label %30

29:                                               ; preds = %26
  store i32 12, ptr %2, align 4
  store i32 1, ptr %5, align 4
  br label %31

30:                                               ; preds = %26
  store i32 0, ptr %2, align 4
  store i32 1, ptr %5, align 4
  br label %31

31:                                               ; preds = %30, %29, %25, %16
  call void @llvm.lifetime.end.p0(i64 4, ptr %4) #7
  %32 = load i32, ptr %2, align 4
  ret i32 %32
}