; Function Attrs: nounwind uwtable
define internal fastcc range(i32 -2147483646, -2147483648) i32 @find_free_signal(ptr noundef %0) unnamed_addr #0 {
  %2 = alloca %struct.sigaction, align 8
  %3 = alloca %struct.sigaction, align 8
  %4 = alloca %struct.sigaction, align 8
  %5 = tail call i32 @__libc_current_sigrtmin() #12
  %6 = add i32 %5, 2
  %7 = tail call i32 @__libc_current_sigrtmax() #12
  %.not18 = icmp sgt i32 %6, %7
  br i1 %.not18, label %._crit_edge, label %.lr.ph

.lr.ph:                                           ; preds = %1
  %8 = getelementptr inbounds nuw i8, ptr %4, i64 8
  %9 = getelementptr inbounds nuw i8, ptr %4, i64 136
  %10 = sext i32 %6 to i64
  br label %11

11:                                               ; preds = %.lr.ph, %20
  %indvars.iv = phi i64 [ %10, %.lr.ph ], [ %indvars.iv.next, %20 ]
  call void @llvm.lifetime.start.p0(i64 152, ptr nonnull %4) #12
  %12 = getelementptr inbounds [65 x %struct.sigaction], ptr @old_sigaction, i64 0, i64 %indvars.iv
  call void @llvm.memset.p0.i64(ptr noundef nonnull align 8 dereferenceable(144) %8, i8 0, i64 144, i1 false)
  store ptr %0, ptr %4, align 8
  store i32 268435456, ptr %9, align 8
  %13 = trunc nsw i64 %indvars.iv to i32
  %14 = call i32 @sigaction(i32 noundef range(i32 -2147483646, -2147483648) %13, ptr noundef nonnull %4, ptr noundef nonnull %12) #12
  %15 = icmp slt i32 %14, 0
  br i1 %15, label %20, label %16

16:                                               ; preds = %11
  %17 = load ptr, ptr %12, align 8
  %.not.i = icmp eq ptr %17, null
  br i1 %.not.i, label %setup_vt_signal.exit, label %18

18:                                               ; preds = %16
  %19 = call i32 @sigaction(i32 noundef range(i32 -2147483646, -2147483648) %13, ptr noundef nonnull %12, ptr noundef null) #12
  br label %20

setup_vt_signal.exit:                             ; preds = %16
  call void @llvm.lifetime.end.p0(i64 152, ptr nonnull %4) #12
  br label %41

20:                                               ; preds = %18, %11
  call void @llvm.lifetime.end.p0(i64 152, ptr nonnull %4) #12
  %indvars.iv.next = add nsw i64 %indvars.iv, 1
  %21 = call i32 @__libc_current_sigrtmax() #12
  %22 = sext i32 %21 to i64
  %.not.not = icmp slt i64 %indvars.iv, %22
  br i1 %.not.not, label %11, label %._crit_edge, !llvm.loop !9

._crit_edge:                                      ; preds = %20, %1
  call void @llvm.lifetime.start.p0(i64 152, ptr nonnull %3) #12
  %23 = getelementptr inbounds nuw i8, ptr %3, i64 8
  call void @llvm.memset.p0.i64(ptr noundef nonnull align 8 dereferenceable(144) %23, i8 0, i64 144, i1 false)
  store ptr %0, ptr %3, align 8
  %24 = getelementptr inbounds nuw i8, ptr %3, i64 136
  store i32 268435456, ptr %24, align 8
  %25 = call i32 @sigaction(i32 noundef 10, ptr noundef nonnull %3, ptr noundef nonnull getelementptr inbounds nuw (i8, ptr @old_sigaction, i64 1520)) #12
  %26 = icmp slt i32 %25, 0
  br i1 %26, label %31, label %27

27:                                               ; preds = %._crit_edge
  %28 = load ptr, ptr getelementptr inbounds nuw (i8, ptr @old_sigaction, i64 1520), align 16
  %.not.i8 = icmp eq ptr %28, null
  br i1 %.not.i8, label %setup_vt_signal.exit10, label %29

29:                                               ; preds = %27
  %30 = call i32 @sigaction(i32 noundef 10, ptr noundef nonnull getelementptr inbounds nuw (i8, ptr @old_sigaction, i64 1520), ptr noundef null) #12
  br label %31

setup_vt_signal.exit10:                           ; preds = %27
  call void @llvm.lifetime.end.p0(i64 152, ptr nonnull %3) #12
  br label %41

31:                                               ; preds = %29, %._crit_edge
  call void @llvm.lifetime.end.p0(i64 152, ptr nonnull %3) #12
  call void @llvm.lifetime.start.p0(i64 152, ptr nonnull %2) #12
  %32 = getelementptr inbounds nuw i8, ptr %2, i64 8
  call void @llvm.memset.p0.i64(ptr noundef nonnull align 8 dereferenceable(144) %32, i8 0, i64 144, i1 false)
  store ptr %0, ptr %2, align 8
  %33 = getelementptr inbounds nuw i8, ptr %2, i64 136
  store i32 268435456, ptr %33, align 8
  %34 = call i32 @sigaction(i32 noundef 12, ptr noundef nonnull %2, ptr noundef nonnull getelementptr inbounds nuw (i8, ptr @old_sigaction, i64 1824)) #12
  %35 = icmp slt i32 %34, 0
  br i1 %35, label %setup_vt_signal.exit13.thread, label %36

36:                                               ; preds = %31
  %37 = load ptr, ptr getelementptr inbounds nuw (i8, ptr @old_sigaction, i64 1824), align 16
  %.not.i11 = icmp eq ptr %37, null
  br i1 %.not.i11, label %40, label %38

38:                                               ; preds = %36
  %39 = call i32 @sigaction(i32 noundef 12, ptr noundef nonnull getelementptr inbounds nuw (i8, ptr @old_sigaction, i64 1824), ptr noundef null) #12
  br label %setup_vt_signal.exit13.thread

setup_vt_signal.exit13.thread:                    ; preds = %38, %31
  call void @llvm.lifetime.end.p0(i64 152, ptr nonnull %2) #12
  br label %41

40:                                               ; preds = %36
  call void @llvm.lifetime.end.p0(i64 152, ptr nonnull %2) #12
  br label %41

41:                                               ; preds = %40, %setup_vt_signal.exit13.thread, %setup_vt_signal.exit10, %setup_vt_signal.exit
  %.07 = phi i32 [ %13, %setup_vt_signal.exit ], [ 10, %setup_vt_signal.exit10 ], [ 12, %40 ], [ 0, %setup_vt_signal.exit13.thread ]
  ret i32 %.07
}